target datalayout = "e-m:e-p270:32:32-p271:32:32-p272:64:64-i64:64-i128:128-f80:128-n8:16:32:64-S128"
target triple = "x86_64-pc-linux-gnu"

%struct._timelib_rel_time = type { i64, i64, i64, i64, i64, i64, i64, i32, i32, i32, i32, i64, %struct.anon, i32, i32 }
%struct.anon = type { i32, i64 }

@.str.14 = private unnamed_addr constant [1 x i8] zeroinitializer, align 1
@.str.21 = private unnamed_addr constant [16 x i8] c" / first day of\00", align 1
@.str.22 = private unnamed_addr constant [15 x i8] c" / last day of\00", align 1
@.str.27 = private unnamed_addr constant [2 x i8] c"\0A\00", align 1
@.str.28 = private unnamed_addr constant [59 x i8] c"%3lldY %3lldM %3lldD / %3lldH %3lldM %3lldS (days: %lld)%s\00", align 1
@.str.29 = private unnamed_addr constant [10 x i8] c" inverted\00", align 1

; Function Attrs: nounwind uwtable
define hidden void @timelib_dump_rel_time(ptr noundef %0) #0 {
  %2 = alloca ptr, align 8
  store ptr %0, ptr %2, align 8
  %3 = load ptr, ptr %2, align 8
  %4 = getelementptr inbounds %struct._timelib_rel_time, ptr %3, i32 0, i32 0
  %5 = load i64, ptr %4, align 8
  %6 = load ptr, ptr %2, align 8
  %7 = getelementptr inbounds %struct._timelib_rel_time, ptr %6, i32 0, i32 1
  %8 = load i64, ptr %7, align 8
  %9 = load ptr, ptr %2, align 8
  %10 = getelementptr inbounds %struct._timelib_rel_time, ptr %9, i32 0, i32 2
  %11 = load i64, ptr %10, align 8
  %12 = load ptr, ptr %2, align 8
  %13 = getelementptr inbounds %struct._timelib_rel_time, ptr %12, i32 0, i32 3
  %14 = load i64, ptr %13, align 8
  %15 = load ptr, ptr %2, align 8
  %16 = getelementptr inbounds %struct._timelib_rel_time, ptr %15, i32 0, i32 4
  %17 = load i64, ptr %16, align 8
  %18 = load ptr, ptr %2, align 8
  %19 = getelementptr inbounds %struct._timelib_rel_time, ptr %18, i32 0, i32 5
  %20 = load i64, ptr %19, align 8
  %21 = load ptr, ptr %2, align 8
  %22 = getelementptr inbounds %struct._timelib_rel_time, ptr %21, i32 0, i32 11
  %23 = load i64, ptr %22, align 8
  %24 = load ptr, ptr %2, align 8
  %25 = getelementptr inbounds %struct._timelib_rel_time, ptr %24, i32 0, i32 10
  %26 = load i32, ptr %25, align 4
  %27 = icmp ne i32 %26, 0
  %28 = select i1 %27, ptr @.str.29, ptr @.str.14
  %29 = call i32 (ptr, ...) @printf(ptr noundef @.str.28, i64 noundef %5, i64 noundef %8, i64 noundef %11, i64 noundef %14, i64 noundef %17, i64 noundef %20, i64 noundef %23, ptr noundef %28)
  %30 = load ptr, ptr %2, align 8
  %31 = getelementptr inbounds %struct._timelib_rel_time, ptr %30, i32 0, i32 9
  %32 = load i32, ptr %31, align 8
  %33 = icmp ne i32 %32, 0
  br i1 %33, label %34, label %43

34:                                               ; preds = %1
  %35 = load ptr, ptr %2, align 8
  %36 = getelementptr inbounds %struct._timelib_rel_time, ptr %35, i32 0, i32 9
  %37 = load i32, ptr %36, align 8
  switch i32 %37, label %42 [
    i32 1, label %38
    i32 2, label %40
  ]

38:                                               ; preds = %34
  %39 = call i32 (ptr, ...) @printf(ptr noundef @.str.21)
  br label %42

40:                                               ; preds = %34
  %41 = call i32 (ptr, ...) @printf(ptr noundef @.str.22)
  br label %42

42:                                               ; preds = %40, %38, %34
  br label %43

43:                                               ; preds = %42, %1
  %44 = call i32 (ptr, ...) @printf(ptr noundef @.str.27)
  ret void
}