; Function Attrs: nofree nounwind uwtable
define hidden void @timelib_dump_rel_time(ptr nocapture noundef readonly %0) local_unnamed_addr #13 {
  %2 = load i64, ptr %0, align 8
  %3 = getelementptr inbounds i8, ptr %0, i64 8
  %4 = load i64, ptr %3, align 8
  %5 = getelementptr inbounds i8, ptr %0, i64 16
  %6 = load i64, ptr %5, align 8
  %7 = getelementptr inbounds i8, ptr %0, i64 24
  %8 = load i64, ptr %7, align 8
  %9 = getelementptr inbounds i8, ptr %0, i64 32
  %10 = load i64, ptr %9, align 8
  %11 = getelementptr inbounds i8, ptr %0, i64 40
  %12 = load i64, ptr %11, align 8
  %13 = getelementptr inbounds i8, ptr %0, i64 72
  %14 = load i64, ptr %13, align 8
  %15 = getelementptr inbounds i8, ptr %0, i64 68
  %16 = load i32, ptr %15, align 4
  %.not = icmp eq i32 %16, 0
  %17 = select i1 %.not, ptr @.str.14, ptr @.str.29
  %18 = tail call i32 (ptr, ...) @printf(ptr noundef nonnull dereferenceable(1) @.str.28, i64 noundef %2, i64 noundef %4, i64 noundef %6, i64 noundef %8, i64 noundef %10, i64 noundef %12, i64 noundef %14, ptr noundef nonnull %17)
  %19 = getelementptr inbounds i8, ptr %0, i64 64
  %20 = load i32, ptr %19, align 8
  switch i32 %20, label %23 [
    i32 2, label %21
    i32 1, label %.sink.split
  ]

21:                                               ; preds = %1
  br label %.sink.split

.sink.split:                                      ; preds = %1, %21
  %.str.21.sink = phi ptr [ @.str.22, %21 ], [ @.str.21, %1 ]
  %22 = tail call i32 (ptr, ...) @printf(ptr noundef nonnull dereferenceable(1) %.str.21.sink)
  br label %23

23:                                               ; preds = %.sink.split, %1
  %putchar = tail call i32 @putchar(i32 10)
  ret void
}